target datalayout = "e-m:e-p270:32:32-p271:32:32-p272:64:64-i64:64-i128:128-f80:128-n8:16:32:64-S128"
target triple = "x86_64-pc-linux-gnu"

@.str.39 = private unnamed_addr constant [6 x i8] c"UTF-8\00", align 1
@.str.40 = private unnamed_addr constant [12 x i8] c"ISO-8859-%d\00", align 1

; Function Attrs: inlinehint nounwind uwtable
define internal i32 @get8(ptr noundef %0, ptr noundef %1) #3 {
  %3 = alloca i32, align 4
  %4 = alloca ptr, align 8
  %5 = alloca ptr, align 8
  %6 = alloca ptr, align 8
  %7 = alloca i32, align 4
  %8 = alloca i32, align 4
  store ptr %0, ptr %4, align 8, !tbaa !13
  store ptr %1, ptr %5, align 8, !tbaa !16
  call void @llvm.lifetime.start.p0(i64 8, ptr %6) #12
  call void @llvm.lifetime.start.p0(i64 4, ptr %7) #12
  %9 = load ptr, ptr %4, align 8, !tbaa !13
  %10 = load ptr, ptr %9, align 8, !tbaa !16
  store ptr %10, ptr %6, align 8, !tbaa !16
  %11 = load ptr, ptr %6, align 8, !tbaa !16
  %12 = load ptr, ptr %5, align 8, !tbaa !16
  %13 = icmp uge ptr %11, %12
  br i1 %13, label %14, label %15

14:                                               ; preds = %2
  store i32 -1094995529, ptr %3, align 4
  store i32 1, ptr %8, align 4
  br label %23

15:                                               ; preds = %2
  %16 = load ptr, ptr %6, align 8, !tbaa !16
  %17 = getelementptr inbounds nuw i8, ptr %16, i32 1
  store ptr %17, ptr %6, align 8, !tbaa !16
  %18 = load i8, ptr %16, align 1, !tbaa !66
  %19 = zext i8 %18 to i32
  store i32 %19, ptr %7, align 4, !tbaa !11
  %20 = load ptr, ptr %6, align 8, !tbaa !16
  %21 = load ptr, ptr %4, align 8, !tbaa !13
  store ptr %20, ptr %21, align 8, !tbaa !16
  %22 = load i32, ptr %7, align 4, !tbaa !11
  store i32 %22, ptr %3, align 4
  store i32 1, ptr %8, align 4
  br label %23

23:                                               ; preds = %15, %14
  call void @llvm.lifetime.end.p0(i64 4, ptr %7) #12
  call void @llvm.lifetime.end.p0(i64 8, ptr %6) #12
  %24 = load i32, ptr %3, align 4
  ret i32 %24
}

; Function Attrs: nounwind uwtable
define internal ptr @getstr8(ptr noundef %0, ptr noundef %1) #0 {
  %3 = alloca ptr, align 8
  %4 = alloca ptr, align 8
  %5 = alloca ptr, align 8
  %6 = alloca i32, align 4
  %7 = alloca ptr, align 8
  %8 = alloca ptr, align 8
  %9 = alloca i32, align 4
  %10 = alloca [32 x ptr], align 16
  %11 = alloca ptr, align 8
  %12 = alloca ptr, align 8
  %13 = alloca ptr, align 8
  %14 = alloca i64, align 8
  %15 = alloca i64, align 8
  %16 = alloca [12 x i8], align 1
  store ptr %0, ptr %4, align 8, !tbaa !13
  store ptr %1, ptr %5, align 8, !tbaa !16
  call void @llvm.lifetime.start.p0(i64 4, ptr %6) #12
  call void @llvm.lifetime.start.p0(i64 8, ptr %7) #12
  call void @llvm.lifetime.start.p0(i64 8, ptr %8) #12
  %17 = load ptr, ptr %4, align 8, !tbaa !13
  %18 = load ptr, ptr %17, align 8, !tbaa !16
  store ptr %18, ptr %7, align 8, !tbaa !16
  %19 = load ptr, ptr %5, align 8, !tbaa !16
  %20 = call i32 @get8(ptr noundef %7, ptr noundef %19)
  store i32 %20, ptr %6, align 4, !tbaa !11
  %21 = load i32, ptr %6, align 4, !tbaa !11
  %22 = icmp slt i32 %21, 0
  br i1 %22, label %23, label %24

23:                                               ; preds = %2
  store ptr null, ptr %3, align 8
  store i32 1, ptr %9, align 4
  br label %166

24:                                               ; preds = %2
  %25 = load i32, ptr %6, align 4, !tbaa !11
  %26 = sext i32 %25 to i64
  %27 = load ptr, ptr %5, align 8, !tbaa !16
  %28 = load ptr, ptr %7, align 8, !tbaa !16
  %29 = ptrtoint ptr %27 to i64
  %30 = ptrtoint ptr %28 to i64
  %31 = sub i64 %29, %30
  %32 = icmp sgt i64 %26, %31
  br i1 %32, label %33, label %34

33:                                               ; preds = %24
  store ptr null, ptr %3, align 8
  store i32 1, ptr %9, align 4
  br label %166

34:                                               ; preds = %24
  %35 = load i32, ptr %6, align 4, !tbaa !11
  %36 = icmp ne i32 %35, 0
  br i1 %36, label %37, label %141

37:                                               ; preds = %34
  call void @llvm.lifetime.start.p0(i64 256, ptr %10) #12
  call void @llvm.memcpy.p0.p0.i64(ptr align 16 %10, ptr align 16 @__const.getstr8.encodings, i64 256, i1 false)
  call void @llvm.lifetime.start.p0(i64 8, ptr %11) #12
  call void @llvm.lifetime.start.p0(i64 8, ptr %12) #12
  call void @llvm.lifetime.start.p0(i64 8, ptr %13) #12
  call void @llvm.lifetime.start.p0(i64 8, ptr %14) #12
  %38 = load i32, ptr %6, align 4, !tbaa !11
  %39 = sext i32 %38 to i64
  store i64 %39, ptr %14, align 8, !tbaa !90
  call void @llvm.lifetime.start.p0(i64 8, ptr %15) #12
  %40 = load i64, ptr %14, align 8, !tbaa !90
  %41 = mul i64 %40, 6
  %42 = add i64 %41, 1
  store i64 %42, ptr %15, align 8, !tbaa !90
  %43 = load i32, ptr %6, align 4, !tbaa !11
  %44 = icmp sge i32 %43, 3
  br i1 %44, label %45, label %87

45:                                               ; preds = %37
  %46 = load ptr, ptr %7, align 8, !tbaa !16
  %47 = getelementptr inbounds i8, ptr %46, i64 0
  %48 = load i8, ptr %47, align 1, !tbaa !66
  %49 = zext i8 %48 to i32
  %50 = icmp eq i32 %49, 16
  br i1 %50, label %51, label %87

51:                                               ; preds = %45
  %52 = load ptr, ptr %7, align 8, !tbaa !16
  %53 = getelementptr inbounds i8, ptr %52, i64 1
  %54 = load i8, ptr %53, align 1, !tbaa !66
  %55 = icmp ne i8 %54, 0
  br i1 %55, label %87, label %56

56:                                               ; preds = %51
  %57 = load ptr, ptr %7, align 8, !tbaa !16
  %58 = getelementptr inbounds i8, ptr %57, i64 2
  %59 = load i8, ptr %58, align 1, !tbaa !66
  %60 = zext i8 %59 to i32
  %61 = icmp ne i32 %60, 0
  br i1 %61, label %62, label %87

62:                                               ; preds = %56
  %63 = load ptr, ptr %7, align 8, !tbaa !16
  %64 = getelementptr inbounds i8, ptr %63, i64 2
  %65 = load i8, ptr %64, align 1, !tbaa !66
  %66 = zext i8 %65 to i32
  %67 = icmp sle i32 %66, 15
  br i1 %67, label %68, label %87

68:                                               ; preds = %62
  %69 = load ptr, ptr %7, align 8, !tbaa !16
  %70 = getelementptr inbounds i8, ptr %69, i64 2
  %71 = load i8, ptr %70, align 1, !tbaa !66
  %72 = zext i8 %71 to i32
  %73 = icmp ne i32 %72, 12
  br i1 %73, label %74, label %87

74:                                               ; preds = %68
  call void @llvm.lifetime.start.p0(i64 12, ptr %16) #12
  %75 = getelementptr inbounds [12 x i8], ptr %16, i64 0, i64 0
  %76 = load ptr, ptr %7, align 8, !tbaa !16
  %77 = getelementptr inbounds i8, ptr %76, i64 2
  %78 = load i8, ptr %77, align 1, !tbaa !66
  %79 = zext i8 %78 to i32
  %80 = call i32 (ptr, i64, ptr, ...) @snprintf(ptr noundef %75, i64 noundef 12, ptr noundef @.str.40, i32 noundef %79) #12
  %81 = load i64, ptr %14, align 8, !tbaa !90
  %82 = sub i64 %81, 3
  store i64 %82, ptr %14, align 8, !tbaa !90
  %83 = load ptr, ptr %7, align 8, !tbaa !16
  %84 = getelementptr inbounds i8, ptr %83, i64 3
  store ptr %84, ptr %12, align 8, !tbaa !16
  %85 = getelementptr inbounds [12 x i8], ptr %16, i64 0, i64 0
  %86 = call noalias ptr @iconv_open(ptr noundef @.str.39, ptr noundef %85)
  store ptr %86, ptr %11, align 8, !tbaa !98
  call void @llvm.lifetime.end.p0(i64 12, ptr %16) #12
  br label %110

87:                                               ; preds = %68, %62, %56, %51, %45, %37
  %88 = load ptr, ptr %7, align 8, !tbaa !16
  %89 = getelementptr inbounds i8, ptr %88, i64 0
  %90 = load i8, ptr %89, align 1, !tbaa !66
  %91 = zext i8 %90 to i32
  %92 = icmp slt i32 %91, 32
  br i1 %92, label %93, label %104

93:                                               ; preds = %87
  %94 = load i64, ptr %14, align 8, !tbaa !90
  %95 = sub i64 %94, 1
  store i64 %95, ptr %14, align 8, !tbaa !90
  %96 = load ptr, ptr %7, align 8, !tbaa !16
  %97 = getelementptr inbounds i8, ptr %96, i64 1
  store ptr %97, ptr %12, align 8, !tbaa !16
  %98 = load ptr, ptr %7, align 8, !tbaa !16
  %99 = load i8, ptr %98, align 1, !tbaa !66
  %100 = zext i8 %99 to i64
  %101 = getelementptr inbounds nuw [32 x ptr], ptr %10, i64 0, i64 %100
  %102 = load ptr, ptr %101, align 8, !tbaa !16
  %103 = call noalias ptr @iconv_open(ptr noundef @.str.39, ptr noundef %102)
  store ptr %103, ptr %11, align 8, !tbaa !98
  br label %109

104:                                              ; preds = %87
  %105 = load ptr, ptr %7, align 8, !tbaa !16
  store ptr %105, ptr %12, align 8, !tbaa !16
  %106 = getelementptr inbounds [32 x ptr], ptr %10, i64 0, i64 0
  %107 = load ptr, ptr %106, align 16, !tbaa !16
  %108 = call noalias ptr @iconv_open(ptr noundef @.str.39, ptr noundef %107)
  store ptr %108, ptr %11, align 8, !tbaa !98
  br label %109

109:                                              ; preds = %104, %93
  br label %110

110:                                              ; preds = %109, %74
  %111 = load ptr, ptr %11, align 8, !tbaa !98
  %112 = icmp eq ptr %111, inttoptr (i64 -1 to ptr)
  br i1 %112, label %113, label %114

113:                                              ; preds = %110
  store i32 2, ptr %9, align 4
  br label %139

114:                                              ; preds = %110
  %115 = load i64, ptr %15, align 8, !tbaa !90
  %116 = call noalias ptr @av_malloc(i64 noundef %115)
  store ptr %116, ptr %13, align 8, !tbaa !16
  store ptr %116, ptr %8, align 8, !tbaa !16
  %117 = load ptr, ptr %8, align 8, !tbaa !16
  %118 = icmp ne ptr %117, null
  br i1 %118, label %122, label %119

119:                                              ; preds = %114
  %120 = load ptr, ptr %11, align 8, !tbaa !98
  %121 = call i32 @iconv_close(ptr noundef %120)
  store ptr null, ptr %3, align 8
  store i32 1, ptr %9, align 4
  br label %139

122:                                              ; preds = %114
  %123 = load ptr, ptr %11, align 8, !tbaa !98
  %124 = call i64 @iconv(ptr noundef %123, ptr noundef %12, ptr noundef %14, ptr noundef %13, ptr noundef %15)
  %125 = icmp eq i64 %124, -1
  br i1 %125, label %126, label %129

126:                                              ; preds = %122
  %127 = load ptr, ptr %11, align 8, !tbaa !98
  %128 = call i32 @iconv_close(ptr noundef %127)
  call void @av_freep(ptr noundef %8)
  store i32 2, ptr %9, align 4
  br label %139

129:                                              ; preds = %122
  %130 = load ptr, ptr %11, align 8, !tbaa !98
  %131 = call i32 @iconv_close(ptr noundef %130)
  %132 = load ptr, ptr %13, align 8, !tbaa !16
  store i8 0, ptr %132, align 1, !tbaa !66
  %133 = load ptr, ptr %7, align 8, !tbaa !16
  %134 = load i32, ptr %6, align 4, !tbaa !11
  %135 = sext i32 %134 to i64
  %136 = getelementptr inbounds i8, ptr %133, i64 %135
  %137 = load ptr, ptr %4, align 8, !tbaa !13
  store ptr %136, ptr %137, align 8, !tbaa !16
  %138 = load ptr, ptr %8, align 8, !tbaa !16
  store ptr %138, ptr %3, align 8
  store i32 1, ptr %9, align 4
  br label %139

139:                                              ; preds = %126, %113, %129, %119
  call void @llvm.lifetime.end.p0(i64 8, ptr %15) #12
  call void @llvm.lifetime.end.p0(i64 8, ptr %14) #12
  call void @llvm.lifetime.end.p0(i64 8, ptr %13) #12
  call void @llvm.lifetime.end.p0(i64 8, ptr %12) #12
  call void @llvm.lifetime.end.p0(i64 8, ptr %11) #12
  call void @llvm.lifetime.end.p0(i64 256, ptr %10) #12
  %140 = load i32, ptr %9, align 4
  switch i32 %140, label %166 [
    i32 2, label %142
  ]

141:                                              ; preds = %34
  br label %142

142:                                              ; preds = %141, %139
  %143 = load i32, ptr %6, align 4, !tbaa !11
  %144 = add nsw i32 %143, 1
  %145 = sext i32 %144 to i64
  %146 = call noalias ptr @av_malloc(i64 noundef %145)
  store ptr %146, ptr %8, align 8, !tbaa !16
  %147 = load ptr, ptr %8, align 8, !tbaa !16
  %148 = icmp ne ptr %147, null
  br i1 %148, label %150, label %149

149:                                              ; preds = %142
  store ptr null, ptr %3, align 8
  store i32 1, ptr %9, align 4
  br label %166

150:                                              ; preds = %142
  %151 = load ptr, ptr %8, align 8, !tbaa !16
  %152 = load ptr, ptr %7, align 8, !tbaa !16
  %153 = load i32, ptr %6, align 4, !tbaa !11
  %154 = sext i32 %153 to i64
  call void @llvm.memcpy.p0.p0.i64(ptr align 1 %151, ptr align 1 %152, i64 %154, i1 false)
  %155 = load ptr, ptr %8, align 8, !tbaa !16
  %156 = load i32, ptr %6, align 4, !tbaa !11
  %157 = sext i32 %156 to i64
  %158 = getelementptr inbounds i8, ptr %155, i64 %157
  store i8 0, ptr %158, align 1, !tbaa !66
  %159 = load i32, ptr %6, align 4, !tbaa !11
  %160 = load ptr, ptr %7, align 8, !tbaa !16
  %161 = sext i32 %159 to i64
  %162 = getelementptr inbounds i8, ptr %160, i64 %161
  store ptr %162, ptr %7, align 8, !tbaa !16
  %163 = load ptr, ptr %7, align 8, !tbaa !16
  %164 = load ptr, ptr %4, align 8, !tbaa !13
  store ptr %163, ptr %164, align 8, !tbaa !16
  %165 = load ptr, ptr %8, align 8, !tbaa !16
  store ptr %165, ptr %3, align 8
  store i32 1, ptr %9, align 4
  br label %166

166:                                              ; preds = %150, %149, %139, %33, %23
  call void @llvm.lifetime.end.p0(i64 8, ptr %8) #12
  call void @llvm.lifetime.end.p0(i64 8, ptr %7) #12
  call void @llvm.lifetime.end.p0(i64 4, ptr %6) #12
  %167 = load ptr, ptr %3, align 8
  ret ptr %167
}