; Function Attrs: nounwind uwtable
define internal fastcc ptr @getstr8(ptr noundef nonnull captures(none) %0, ptr noundef %1) unnamed_addr #0 {
  %3 = alloca ptr, align 8
  %4 = alloca ptr, align 8
  %5 = alloca ptr, align 8
  %6 = alloca i64, align 8
  %7 = alloca i64, align 8
  %8 = alloca [12 x i8], align 1
  call void @llvm.lifetime.start.p0(i64 8, ptr nonnull %3) #12
  %9 = load ptr, ptr %0, align 8, !tbaa !4
  %.not.i = icmp ult ptr %9, %1
  br i1 %.not.i, label %get8.exit, label %get8.exit.thread

get8.exit:                                        ; preds = %2
  %10 = getelementptr inbounds nuw i8, ptr %9, i64 1
  %11 = load i8, ptr %9, align 1, !tbaa !9
  %12 = zext i8 %11 to i64
  %13 = ptrtoint ptr %1 to i64
  %14 = ptrtoint ptr %10 to i64
  %15 = sub i64 %13, %14
  %16 = icmp slt i64 %15, %12
  br i1 %16, label %get8.exit.thread, label %17

17:                                               ; preds = %get8.exit
  %.not = icmp eq i8 %11, 0
  br i1 %.not, label %60, label %18

18:                                               ; preds = %17
  call void @llvm.lifetime.start.p0(i64 8, ptr nonnull %4) #12
  call void @llvm.lifetime.start.p0(i64 8, ptr nonnull %5) #12
  call void @llvm.lifetime.start.p0(i64 8, ptr nonnull %6) #12
  store i64 %12, ptr %6, align 8, !tbaa !90
  call void @llvm.lifetime.start.p0(i64 8, ptr nonnull %7) #12
  %19 = mul nuw nsw i64 %12, 6
  %20 = or disjoint i64 %19, 1
  store i64 %20, ptr %7, align 8, !tbaa !90
  %21 = icmp ugt i8 %11, 2
  %.pr.pre = load i8, ptr %10, align 1, !tbaa !9
  %22 = icmp eq i8 %.pr.pre, 16
  %or.cond47 = select i1 %21, i1 %22, i1 false
  br i1 %or.cond47, label %23, label %thread-pre-split

23:                                               ; preds = %18
  %24 = getelementptr inbounds nuw i8, ptr %9, i64 2
  %25 = load i8, ptr %24, align 1, !tbaa !9
  %.not27 = icmp eq i8 %25, 0
  br i1 %.not27, label %26, label %thread-pre-split.thread

26:                                               ; preds = %23
  %27 = getelementptr inbounds nuw i8, ptr %9, i64 3
  %28 = load i8, ptr %27, align 1, !tbaa !9
  %29 = add i8 %28, -16
  %or.cond = icmp ult i8 %29, -15
  %.not29 = icmp eq i8 %28, 12
  %or.cond32 = or i1 %.not29, %or.cond
  br i1 %or.cond32, label %thread-pre-split.thread, label %30

30:                                               ; preds = %26
  call void @llvm.lifetime.start.p0(i64 12, ptr nonnull %8) #12
  %31 = zext nneg i8 %28 to i32
  %32 = call i32 (ptr, i64, ptr, ...) @snprintf(ptr noundef nonnull dereferenceable(1) %8, i64 noundef 12, ptr noundef nonnull @.str.40, i32 noundef %31) #12
  %33 = add nsw i64 %12, -3
  store i64 %33, ptr %6, align 8, !tbaa !90
  %34 = getelementptr inbounds nuw i8, ptr %9, i64 4
  store ptr %34, ptr %4, align 8, !tbaa !4
  %35 = call noalias ptr @iconv_open(ptr noundef nonnull @.str.39, ptr noundef nonnull %8) #12
  call void @llvm.lifetime.end.p0(i64 12, ptr nonnull %8) #12
  br label %45

thread-pre-split:                                 ; preds = %18
  %36 = icmp ult i8 %.pr.pre, 32
  br i1 %36, label %thread-pre-split.thread, label %43

thread-pre-split.thread:                          ; preds = %23, %26, %thread-pre-split
  %37 = add nsw i64 %12, -1
  store i64 %37, ptr %6, align 8, !tbaa !90
  %38 = getelementptr inbounds nuw i8, ptr %9, i64 2
  store ptr %38, ptr %4, align 8, !tbaa !4
  %39 = zext nneg i8 %.pr.pre to i64
  %40 = getelementptr inbounds nuw [32 x ptr], ptr @__const.getstr8.encodings, i64 0, i64 %39
  %41 = load ptr, ptr %40, align 8, !tbaa !4
  %42 = tail call noalias ptr @iconv_open(ptr noundef nonnull @.str.39, ptr noundef %41) #12
  br label %45

43:                                               ; preds = %thread-pre-split
  store ptr %10, ptr %4, align 8, !tbaa !4
  %44 = tail call noalias ptr @iconv_open(ptr noundef nonnull @.str.39, ptr noundef nonnull @.str.24) #12
  br label %45

45:                                               ; preds = %thread-pre-split.thread, %43, %30
  %.0 = phi ptr [ %42, %thread-pre-split.thread ], [ %44, %43 ], [ %35, %30 ]
  %46 = icmp eq ptr %.0, inttoptr (i64 -1 to ptr)
  br i1 %46, label %.thread, label %47

47:                                               ; preds = %45
  %48 = call noalias ptr @av_malloc(i64 noundef %20) #12
  store ptr %48, ptr %5, align 8, !tbaa !4
  store ptr %48, ptr %3, align 8, !tbaa !4
  %.not30 = icmp eq ptr %48, null
  br i1 %.not30, label %49, label %51

49:                                               ; preds = %47
  %50 = call i32 @iconv_close(ptr noundef %.0) #12
  br label %59

51:                                               ; preds = %47
  %52 = call i64 @iconv(ptr noundef %.0, ptr noundef nonnull %4, ptr noundef nonnull %6, ptr noundef nonnull %5, ptr noundef nonnull %7) #12
  %53 = icmp eq i64 %52, -1
  %54 = call i32 @iconv_close(ptr noundef %.0) #12
  br i1 %53, label %55, label %56

55:                                               ; preds = %51
  call void @av_freep(ptr noundef nonnull %3) #12
  br label %.thread

56:                                               ; preds = %51
  %57 = load ptr, ptr %5, align 8, !tbaa !4
  store i8 0, ptr %57, align 1, !tbaa !9
  %58 = getelementptr inbounds nuw i8, ptr %10, i64 %12
  store ptr %58, ptr %0, align 8, !tbaa !4
  br label %59

.thread:                                          ; preds = %55, %45
  call void @llvm.lifetime.end.p0(i64 8, ptr nonnull %7) #12
  call void @llvm.lifetime.end.p0(i64 8, ptr nonnull %6) #12
  call void @llvm.lifetime.end.p0(i64 8, ptr nonnull %5) #12
  call void @llvm.lifetime.end.p0(i64 8, ptr nonnull %4) #12
  br label %60

59:                                               ; preds = %56, %49
  call void @llvm.lifetime.end.p0(i64 8, ptr nonnull %7) #12
  call void @llvm.lifetime.end.p0(i64 8, ptr nonnull %6) #12
  call void @llvm.lifetime.end.p0(i64 8, ptr nonnull %5) #12
  call void @llvm.lifetime.end.p0(i64 8, ptr nonnull %4) #12
  br label %get8.exit.thread

60:                                               ; preds = %.thread, %17
  %61 = add nuw nsw i64 %12, 1
  %62 = call noalias ptr @av_malloc(i64 noundef %61) #12
  %.not31 = icmp eq ptr %62, null
  br i1 %.not31, label %get8.exit.thread, label %63

63:                                               ; preds = %60
  call void @llvm.memcpy.p0.p0.i64(ptr nonnull align 1 %62, ptr nonnull align 1 %10, i64 %12, i1 false)
  %64 = getelementptr inbounds nuw i8, ptr %62, i64 %12
  store i8 0, ptr %64, align 1, !tbaa !9
  %65 = getelementptr inbounds nuw i8, ptr %10, i64 %12
  store ptr %65, ptr %0, align 8, !tbaa !4
  br label %get8.exit.thread

get8.exit.thread:                                 ; preds = %2, %59, %60, %get8.exit, %63
  %.022 = phi ptr [ %62, %63 ], [ %48, %59 ], [ null, %get8.exit ], [ null, %60 ], [ null, %2 ]
  call void @llvm.lifetime.end.p0(i64 8, ptr nonnull %3) #12
  ret ptr %.022
}